; Function Attrs: mustprogress nofree nounwind memory(readwrite, inaccessiblemem: read) uwtable
define internal void @_ZL20evaluate_pdbatomnameRKN3gmx20SelMethodEvalContextEP15gmx_ana_index_tP18gmx_ana_selvalue_tPv(ptr noundef nonnull readonly align 8 captures(none) dereferenceable(24) %0, ptr noundef readonly captures(none) %1, ptr noundef captures(none) initializes((4, 8)) %2, ptr readnone captures(none) %3) #16 {
  %5 = load i32, ptr %1, align 8, !tbaa !7
  %6 = getelementptr inbounds nuw i8, ptr %2, i64 4
  store i32 %5, ptr %6, align 4, !tbaa !12
  %7 = icmp sgt i32 %5, 0
  br i1 %7, label %.lr.ph, label %._crit_edge

.lr.ph:                                           ; preds = %4
  %8 = load ptr, ptr %0, align 8, !tbaa !19
  %9 = getelementptr inbounds nuw i8, ptr %1, i64 8
  %10 = load ptr, ptr %9, align 8, !tbaa !15
  %11 = getelementptr inbounds nuw i8, ptr %8, i64 136
  %12 = getelementptr inbounds nuw i8, ptr %8, i64 144
  %13 = load ptr, ptr %12, align 8, !tbaa !24
  %14 = load ptr, ptr %11, align 8, !tbaa !27
  %15 = ptrtoint ptr %13 to i64
  %16 = ptrtoint ptr %14 to i64
  %17 = sub i64 %15, %16
  %18 = sdiv exact i64 %17, 56
  %19 = trunc i64 %18 to i32
  %20 = getelementptr inbounds nuw i8, ptr %8, i64 736
  %21 = load ptr, ptr %20, align 8, !tbaa !28
  %22 = getelementptr inbounds nuw i8, ptr %8, i64 112
  %23 = load ptr, ptr %22, align 8, !tbaa !31
  %24 = getelementptr inbounds nuw i8, ptr %2, i64 8
  %wide.trip.count = zext nneg i32 %5 to i64
  br label %25

._crit_edge:                                      ; preds = %56, %4
  ret void

25:                                               ; preds = %.lr.ph, %56
  %indvars.iv = phi i64 [ 0, %.lr.ph ], [ %indvars.iv.next, %56 ]
  %.01315 = phi i32 [ 0, %.lr.ph ], [ %.1, %56 ]
  %26 = getelementptr inbounds nuw i32, ptr %10, i64 %indvars.iv
  %27 = load i32, ptr %26, align 4, !tbaa !16
  br label %28

28:                                               ; preds = %37, %25
  %.1 = phi i32 [ %.01315, %25 ], [ %40, %37 ]
  %.026.i.i = phi i32 [ %19, %25 ], [ %.127.i.i, %37 ]
  %.0.i.i = phi i32 [ -1, %25 ], [ %.1.i.i, %37 ]
  %29 = sext i32 %.1 to i64
  %30 = getelementptr inbounds nuw %struct.MoleculeBlockIndices, ptr %21, i64 %29
  %31 = getelementptr inbounds nuw i8, ptr %30, i64 4
  %32 = load i32, ptr %31, align 4, !tbaa !34
  %.fr8.i = freeze i32 %32
  %33 = icmp slt i32 %27, %.fr8.i
  br i1 %33, label %37, label %34

34:                                               ; preds = %28
  %35 = getelementptr inbounds nuw i8, ptr %30, i64 8
  %36 = load i32, ptr %35, align 4, !tbaa !36
  %.not.i.i = icmp slt i32 %27, %36
  br i1 %.not.i.i, label %_ZL18mtopGetAtomPdbInfoRK10gmx_mtop_tiPi.exit, label %37

37:                                               ; preds = %34, %28
  %.127.i.i = phi i32 [ %.1, %28 ], [ %.026.i.i, %34 ]
  %.1.i.i = phi i32 [ %.0.i.i, %28 ], [ %.1, %34 ]
  %38 = add i32 %.127.i.i, 1
  %39 = add i32 %38, %.1.i.i
  %40 = ashr i32 %39, 1
  br label %28, !llvm.loop !37

_ZL18mtopGetAtomPdbInfoRK10gmx_mtop_tiPi.exit:    ; preds = %34
  %41 = sub i32 %27, %.fr8.i
  %42 = load i32, ptr %30, align 4, !tbaa !38
  %43 = srem i32 %41, %42
  %44 = getelementptr inbounds nuw %struct.gmx_molblock_t, ptr %14, i64 %29
  %45 = load i32, ptr %44, align 8, !tbaa !39
  %46 = sext i32 %45 to i64
  %47 = getelementptr inbounds nuw %struct.gmx_moltype_t, ptr %23, i64 %46, i32 1, i32 7
  %48 = load ptr, ptr %47, align 8, !tbaa !156
  %49 = sext i32 %43 to i64
  %50 = getelementptr inbounds %struct.t_pdbinfo, ptr %48, i64 %49, i32 3
  br label %51

51:                                               ; preds = %51, %_ZL18mtopGetAtomPdbInfoRK10gmx_mtop_tiPi.exit
  %.0 = phi ptr [ %50, %_ZL18mtopGetAtomPdbInfoRK10gmx_mtop_tiPi.exit ], [ %55, %51 ]
  %52 = load i8, ptr %.0, align 1, !tbaa !4
  %53 = sext i8 %52 to i32
  %54 = tail call i32 @isspace(i32 noundef %53) #24
  %.not = icmp eq i32 %54, 0
  %55 = getelementptr inbounds nuw i8, ptr %.0, i64 1
  br i1 %.not, label %56, label %51, !llvm.loop !160

56:                                               ; preds = %51
  %57 = load ptr, ptr %24, align 8, !tbaa !4
  %58 = getelementptr inbounds nuw ptr, ptr %57, i64 %indvars.iv
  store ptr %.0, ptr %58, align 8, !tbaa !118
  %indvars.iv.next = add nuw nsw i64 %indvars.iv, 1
  %exitcond.not = icmp eq i64 %indvars.iv.next, %wide.trip.count
  br i1 %exitcond.not, label %._crit_edge, label %25, !llvm.loop !161
}